; Function Attrs: mustprogress nounwind uwtable
define hidden void @_ZN19OpenColorIO_v2_4dev18NamedTransformImpl7setNameEPKc(ptr noundef nonnull align 8 dereferenceable(224) %this, ptr noundef %name) unnamed_addr #3 align 2 personality ptr @__gxx_personality_v0 {
entry:
  %tobool.not = icmp eq ptr %name, null
  %cond = select i1 %tobool.not, ptr @.str, ptr %name
  %m_name = getelementptr inbounds i8, ptr %this, i64 8
  %call = invoke noundef nonnull align 8 dereferenceable(32) ptr @_ZNSt7__cxx1112basic_stringIcSt11char_traitsIcESaIcEEaSEPKc(ptr noundef nonnull align 8 dereferenceable(32) %m_name, ptr noundef nonnull %cond)
          to label %invoke.cont unwind label %terminate.lpad

invoke.cont:                                      ; preds = %entry
  %m_aliases = getelementptr inbounds i8, ptr %this, i64 40
  %call4 = invoke noundef zeroext i1 @_ZN11StringUtils6RemoveERSt6vectorINSt7__cxx1112basic_stringIcSt11char_traitsIcESaIcEEESaIS6_EERKS6_(ptr noundef nonnull align 8 dereferenceable(24) %m_aliases, ptr noundef nonnull align 8 dereferenceable(32) %m_name)
          to label %invoke.cont3 unwind label %terminate.lpad

invoke.cont3:                                     ; preds = %invoke.cont
  ret void

terminate.lpad:                                   ; preds = %invoke.cont, %entry
  %0 = landingpad { ptr, i32 }
          catch ptr null
  %1 = extractvalue { ptr, i32 } %0, 0
  tail call void @__clang_call_terminate(ptr %1) #19
  unreachable
}